; Function Attrs: nounwind uwtable
define ptr @l_Lean_MVarId_tryClearMany(ptr noundef %0, ptr noundef readonly captures(none) %1, ptr noundef %2, ptr noundef %3, ptr noundef %4, ptr noundef %5, ptr noundef %6) local_unnamed_addr #0 {
lean_nat_lt.exit:
  %7 = getelementptr i8, ptr %1, i64 8
  %.val = load i64, ptr %7, align 8, !tbaa !12
  %.mask = and i64 %.val, 9223372036854775807
  %.not = icmp eq i64 %.mask, 0
  br i1 %.not, label %lean_dec.exit30, label %lean_dec.exit

lean_dec.exit30:                                  ; preds = %lean_nat_lt.exit
  %8 = ptrtoint ptr %5 to i64
  %9 = and i64 %8, 1
  %.not42 = icmp eq i64 %9, 0
  br i1 %.not42, label %10, label %lean_dec.exit29

10:                                               ; preds = %lean_dec.exit30
  %11 = load i32, ptr %5, align 4, !tbaa !4
  %12 = icmp sgt i32 %11, 1
  br i1 %12, label %13, label %15, !prof !9

13:                                               ; preds = %10
  %14 = add nsw i32 %11, -1
  store i32 %14, ptr %5, align 4, !tbaa !4
  br label %lean_dec.exit29

15:                                               ; preds = %10
  %.not.i31 = icmp eq i32 %11, 0
  br i1 %.not.i31, label %lean_dec.exit29, label %16

16:                                               ; preds = %15
  tail call void @lean_dec_ref_cold(ptr noundef nonnull %5) #4
  br label %lean_dec.exit29

lean_dec.exit29:                                  ; preds = %16, %15, %13, %lean_dec.exit30
  %17 = ptrtoint ptr %4 to i64
  %18 = and i64 %17, 1
  %.not43 = icmp eq i64 %18, 0
  br i1 %.not43, label %19, label %lean_dec.exit28

19:                                               ; preds = %lean_dec.exit29
  %20 = load i32, ptr %4, align 4, !tbaa !4
  %21 = icmp sgt i32 %20, 1
  br i1 %21, label %22, label %24, !prof !9

22:                                               ; preds = %19
  %23 = add nsw i32 %20, -1
  store i32 %23, ptr %4, align 4, !tbaa !4
  br label %lean_dec.exit28

24:                                               ; preds = %19
  %.not.i33 = icmp eq i32 %20, 0
  br i1 %.not.i33, label %lean_dec.exit28, label %25

25:                                               ; preds = %24
  tail call void @lean_dec_ref_cold(ptr noundef nonnull %4) #4
  br label %lean_dec.exit28

lean_dec.exit28:                                  ; preds = %25, %24, %22, %lean_dec.exit29
  %26 = ptrtoint ptr %3 to i64
  %27 = and i64 %26, 1
  %.not44 = icmp eq i64 %27, 0
  br i1 %.not44, label %28, label %lean_dec.exit27

28:                                               ; preds = %lean_dec.exit28
  %29 = load i32, ptr %3, align 4, !tbaa !4
  %30 = icmp sgt i32 %29, 1
  br i1 %30, label %31, label %33, !prof !9

31:                                               ; preds = %28
  %32 = add nsw i32 %29, -1
  store i32 %32, ptr %3, align 4, !tbaa !4
  br label %lean_dec.exit27

33:                                               ; preds = %28
  %.not.i35 = icmp eq i32 %29, 0
  br i1 %.not.i35, label %lean_dec.exit27, label %34

34:                                               ; preds = %33
  tail call void @lean_dec_ref_cold(ptr noundef nonnull %3) #4
  br label %lean_dec.exit27

lean_dec.exit27:                                  ; preds = %34, %33, %31, %lean_dec.exit28
  %35 = ptrtoint ptr %2 to i64
  %36 = and i64 %35, 1
  %.not45 = icmp eq i64 %36, 0
  br i1 %.not45, label %37, label %lean_dec.exit26

37:                                               ; preds = %lean_dec.exit27
  %38 = load i32, ptr %2, align 4, !tbaa !4
  %39 = icmp sgt i32 %38, 1
  br i1 %39, label %40, label %42, !prof !9

40:                                               ; preds = %37
  %41 = add nsw i32 %38, -1
  store i32 %41, ptr %2, align 4, !tbaa !4
  br label %lean_dec.exit26

42:                                               ; preds = %37
  %.not.i37 = icmp eq i32 %38, 0
  br i1 %.not.i37, label %lean_dec.exit26, label %43

43:                                               ; preds = %42
  tail call void @lean_dec_ref_cold(ptr noundef nonnull %2) #4
  br label %lean_dec.exit26

lean_dec.exit26:                                  ; preds = %43, %42, %40, %lean_dec.exit27
  tail call void @lean_inc_heartbeat() #4
  %44 = tail call noalias ptr @mi_malloc_small(i64 noundef 24) #4
  %45 = icmp eq ptr %44, null
  br i1 %45, label %46, label %lean_alloc_ctor.exit

46:                                               ; preds = %lean_dec.exit26
  tail call void @lean_internal_panic_out_of_memory() #5
  unreachable

lean_alloc_ctor.exit:                             ; preds = %lean_dec.exit26
  %47 = getelementptr inbounds nuw i8, ptr %44, i64 4
  store i32 1, ptr %44, align 4, !tbaa !4
  store i32 131096, ptr %47, align 4
  %48 = getelementptr inbounds nuw i8, ptr %44, i64 8
  store ptr %0, ptr %48, align 8, !tbaa !10
  %49 = getelementptr inbounds nuw i8, ptr %44, i64 16
  store ptr %6, ptr %49, align 8, !tbaa !10
  br label %51

lean_dec.exit:                                    ; preds = %lean_nat_lt.exit
  %50 = tail call ptr @l_Array_foldrMUnsafe_fold___at_Lean_MVarId_tryClearMany___spec__1(ptr noundef nonnull %1, i64 noundef %.mask, i64 noundef 0, ptr noundef %0, ptr noundef %2, ptr noundef %3, ptr noundef %4, ptr noundef %5, ptr noundef %6)
  br label %51

51:                                               ; preds = %lean_dec.exit, %lean_alloc_ctor.exit
  %.0 = phi ptr [ %44, %lean_alloc_ctor.exit ], [ %50, %lean_dec.exit ]
  ret ptr %.0
}